; ModuleID = '35/352.c'
source_filename = "35/352.c"
target datalayout = "e-m:e-p270:32:32-p271:32:32-p272:64:64-i64:64-f80:128-n8:16:32:64-S128"
target triple = "x86_64-pc-linux-gnu"

@.str = private unnamed_addr constant [6 x i8] c"%d,%d\00", align 1
@.str.1 = private unnamed_addr constant [4 x i8] c"%lf\00", align 1
@.str.2 = private unnamed_addr constant [6 x i8] c"%d+%d\00", align 1
@.str.3 = private unnamed_addr constant [3 x i8] c"No\00", align 1

; Function Attrs: noinline nounwind uwtable
define dso_local i32 @main() #0 {
  %1 = alloca i32, align 4
  %2 = alloca [10 x [10 x double]], align 16
  %3 = alloca double, align 8
  %4 = alloca double, align 8
  %5 = alloca i32, align 4
  %6 = alloca i32, align 4
  %7 = alloca i32, align 4
  %8 = alloca i32, align 4
  %9 = alloca i32, align 4
  %10 = alloca i32, align 4
  %11 = alloca i32, align 4
  %12 = alloca i32, align 4
  store i32 0, i32* %1, align 4
  store double -1.000000e+04, double* %3, align 8
  store double 1.000000e+05, double* %4, align 8
  store i32 -1, i32* %10, align 4
  store i32 -1, i32* %11, align 4
  store i32 -1, i32* %12, align 4
  %13 = call i32 (i8*, ...) @__isoc99_scanf(i8* getelementptr inbounds ([6 x i8], [6 x i8]* @.str, i64 0, i64 0), i32* %5, i32* %6)
  store i32 0, i32* %7, align 4
  br label %14

14:                                               ; preds = %35, %0
  %15 = load i32, i32* %7, align 4
  %16 = load i32, i32* %5, align 4
  %17 = icmp slt i32 %15, %16
  br i1 %17, label %18, label %38

18:                                               ; preds = %14
  store i32 0, i32* %8, align 4
  br label %19

19:                                               ; preds = %31, %18
  %20 = load i32, i32* %8, align 4
  %21 = load i32, i32* %6, align 4
  %22 = icmp slt i32 %20, %21
  br i1 %22, label %23, label %34

23:                                               ; preds = %19
  %24 = load i32, i32* %7, align 4
  %25 = sext i32 %24 to i64
  %26 = getelementptr inbounds [10 x [10 x double]], [10 x [10 x double]]* %2, i64 0, i64 %25
  %27 = load i32, i32* %8, align 4
  %28 = sext i32 %27 to i64
  %29 = getelementptr inbounds [10 x double], [10 x double]* %26, i64 0, i64 %28
  %30 = call i32 (i8*, ...) @__isoc99_scanf(i8* getelementptr inbounds ([4 x i8], [4 x i8]* @.str.1, i64 0, i64 0), double* %29)
  br label %31

31:                                               ; preds = %23
  %32 = load i32, i32* %8, align 4
  %33 = add nsw i32 %32, 1
  store i32 %33, i32* %8, align 4
  br label %19

34:                                               ; preds = %19
  br label %35

35:                                               ; preds = %34
  %36 = load i32, i32* %7, align 4
  %37 = add nsw i32 %36, 1
  store i32 %37, i32* %7, align 4
  br label %14

38:                                               ; preds = %14
  store i32 0, i32* %7, align 4
  br label %39

39:                                               ; preds = %110, %38
  %40 = load i32, i32* %7, align 4
  %41 = load i32, i32* %5, align 4
  %42 = icmp slt i32 %40, %41
  br i1 %42, label %43, label %113

43:                                               ; preds = %39
  store i32 0, i32* %8, align 4
  br label %44

44:                                               ; preds = %68, %43
  %45 = load i32, i32* %8, align 4
  %46 = load i32, i32* %6, align 4
  %47 = icmp slt i32 %45, %46
  br i1 %47, label %48, label %71

48:                                               ; preds = %44
  %49 = load i32, i32* %7, align 4
  %50 = sext i32 %49 to i64
  %51 = getelementptr inbounds [10 x [10 x double]], [10 x [10 x double]]* %2, i64 0, i64 %50
  %52 = load i32, i32* %8, align 4
  %53 = sext i32 %52 to i64
  %54 = getelementptr inbounds [10 x double], [10 x double]* %51, i64 0, i64 %53
  %55 = load double, double* %54, align 8
  %56 = load double, double* %3, align 8
  %57 = fcmp ogt double %55, %56
  br i1 %57, label %58, label %67

58:                                               ; preds = %48
  %59 = load i32, i32* %7, align 4
  %60 = sext i32 %59 to i64
  %61 = getelementptr inbounds [10 x [10 x double]], [10 x [10 x double]]* %2, i64 0, i64 %60
  %62 = load i32, i32* %8, align 4
  %63 = sext i32 %62 to i64
  %64 = getelementptr inbounds [10 x double], [10 x double]* %61, i64 0, i64 %63
  %65 = load double, double* %64, align 8
  store double %65, double* %3, align 8
  %66 = load i32, i32* %8, align 4
  store i32 %66, i32* %10, align 4
  br label %67

67:                                               ; preds = %58, %48
  br label %68

68:                                               ; preds = %67
  %69 = load i32, i32* %8, align 4
  %70 = add nsw i32 %69, 1
  store i32 %70, i32* %8, align 4
  br label %44

71:                                               ; preds = %44
  store i32 0, i32* %9, align 4
  br label %72

72:                                               ; preds = %96, %71
  %73 = load i32, i32* %9, align 4
  %74 = load i32, i32* %5, align 4
  %75 = icmp slt i32 %73, %74
  br i1 %75, label %76, label %99

76:                                               ; preds = %72
  %77 = load double, double* %4, align 8
  %78 = load i32, i32* %9, align 4
  %79 = sext i32 %78 to i64
  %80 = getelementptr inbounds [10 x [10 x double]], [10 x [10 x double]]* %2, i64 0, i64 %79
  %81 = load i32, i32* %10, align 4
  %82 = sext i32 %81 to i64
  %83 = getelementptr inbounds [10 x double], [10 x double]* %80, i64 0, i64 %82
  %84 = load double, double* %83, align 8
  %85 = fcmp oge double %77, %84
  br i1 %85, label %86, label %95

86:                                               ; preds = %76
  %87 = load i32, i32* %9, align 4
  %88 = sext i32 %87 to i64
  %89 = getelementptr inbounds [10 x [10 x double]], [10 x [10 x double]]* %2, i64 0, i64 %88
  %90 = load i32, i32* %10, align 4
  %91 = sext i32 %90 to i64
  %92 = getelementptr inbounds [10 x double], [10 x double]* %89, i64 0, i64 %91
  %93 = load double, double* %92, align 8
  store double %93, double* %4, align 8
  %94 = load i32, i32* %9, align 4
  store i32 %94, i32* %12, align 4
  br label %95

95:                                               ; preds = %86, %76
  br label %96

96:                                               ; preds = %95
  %97 = load i32, i32* %9, align 4
  %98 = add nsw i32 %97, 1
  store i32 %98, i32* %9, align 4
  br label %72

99:                                               ; preds = %72
  %100 = load double, double* %3, align 8
  %101 = load double, double* %4, align 8
  %102 = fcmp oeq double %100, %101
  br i1 %102, label %103, label %109

103:                                              ; preds = %99
  %104 = load i32, i32* %7, align 4
  %105 = load i32, i32* %12, align 4
  %106 = icmp eq i32 %104, %105
  br i1 %106, label %107, label %109

107:                                              ; preds = %103
  %108 = load i32, i32* %7, align 4
  store i32 %108, i32* %11, align 4
  br label %113

109:                                              ; preds = %103, %99
  br label %110

110:                                              ; preds = %109
  %111 = load i32, i32* %7, align 4
  %112 = add nsw i32 %111, 1
  store i32 %112, i32* %7, align 4
  br label %39

113:                                              ; preds = %107, %39
  %114 = load i32, i32* %10, align 4
  %115 = icmp ne i32 %114, -1
  br i1 %115, label %116, label %123

116:                                              ; preds = %113
  %117 = load i32, i32* %11, align 4
  %118 = icmp ne i32 %117, -1
  br i1 %118, label %119, label %123

119:                                              ; preds = %116
  %120 = load i32, i32* %11, align 4
  %121 = load i32, i32* %10, align 4
  %122 = call i32 (i8*, ...) @printf(i8* getelementptr inbounds ([6 x i8], [6 x i8]* @.str.2, i64 0, i64 0), i32 %120, i32 %121)
  br label %125

123:                                              ; preds = %116, %113
  %124 = call i32 (i8*, ...) @printf(i8* getelementptr inbounds ([3 x i8], [3 x i8]* @.str.3, i64 0, i64 0))
  br label %125

125:                                              ; preds = %123, %119
  ret i32 0
}

declare dso_local i32 @__isoc99_scanf(i8*, ...) #1

declare dso_local i32 @printf(i8*, ...) #1


!llvm.module.flags = !{!0}
!llvm.ident = !{!1}

!0 = !{i32 1, !"wchar_size", i32 4}
!1 = !{!"clang version 10.0.0-4ubuntu1 "}
